target datalayout = "e-m:e-p270:32:32-p271:32:32-p272:64:64-i64:64-i128:128-f80:128-n8:16:32:64-S128"
target triple = "x86_64-unknown-linux-gnu"

%"class.icu_75::TransliterationRule" = type { ptr, ptr, ptr, ptr, ptr, %"class.icu_75::UnicodeString", ptr, i32, i32, i32, i8, ptr }
%"class.icu_75::UnicodeString" = type { %"class.icu_75::Replaceable", %"union.icu_75::UnicodeString::StackBufferOrFields" }
%"class.icu_75::Replaceable" = type { %"class.icu_75::UObject" }
%"class.icu_75::UObject" = type { ptr }
%"union.icu_75::UnicodeString::StackBufferOrFields" = type { %struct.anon.0, [32 x i8] }
%struct.anon.0 = type { i16, i32, i32, ptr }

; Function Attrs: mustprogress uwtable
define noundef signext i8 @_ZNK6icu_7519TransliterationRule17matchesIndexValueEh(ptr noundef nonnull align 8 dereferenceable(136) %this, i8 noundef zeroext %v) #1 align 2 {
entry:
  %this.addr = alloca ptr, align 8
  %v.addr = alloca i8, align 1
  %m = alloca ptr, align 8
  store ptr %this, ptr %this.addr, align 8
  store i8 %v, ptr %v.addr, align 1
  %this1 = load ptr, ptr %this.addr, align 8
  %key = getelementptr inbounds %"class.icu_75::TransliterationRule", ptr %this1, i32 0, i32 2
  %0 = load ptr, ptr %key, align 8
  %cmp = icmp ne ptr %0, null
  br i1 %cmp, label %cond.true, label %cond.false

cond.true:                                        ; preds = %entry
  %key2 = getelementptr inbounds %"class.icu_75::TransliterationRule", ptr %this1, i32 0, i32 2
  %1 = load ptr, ptr %key2, align 8
  br label %cond.end

cond.false:                                       ; preds = %entry
  %postContext = getelementptr inbounds %"class.icu_75::TransliterationRule", ptr %this1, i32 0, i32 3
  %2 = load ptr, ptr %postContext, align 8
  br label %cond.end

cond.end:                                         ; preds = %cond.false, %cond.true
  %cond = phi ptr [ %1, %cond.true ], [ %2, %cond.false ]
  %3 = icmp eq ptr %cond, null
  br i1 %3, label %cast.end, label %cast.notnull

cast.notnull:                                     ; preds = %cond.end
  %add.ptr = getelementptr inbounds i8, ptr %cond, i64 8
  br label %cast.end

cast.end:                                         ; preds = %cast.notnull, %cond.end
  %cast.result = phi ptr [ %add.ptr, %cast.notnull ], [ null, %cond.end ]
  store ptr %cast.result, ptr %m, align 8
  %4 = load ptr, ptr %m, align 8
  %cmp3 = icmp ne ptr %4, null
  br i1 %cmp3, label %cond.true4, label %cond.false5

cond.true4:                                       ; preds = %cast.end
  %5 = load ptr, ptr %m, align 8
  %6 = load i8, ptr %v.addr, align 1
  %vtable = load ptr, ptr %5, align 8
  %vfn = getelementptr inbounds ptr, ptr %vtable, i64 4
  %7 = load ptr, ptr %vfn, align 8
  %call = call noundef signext i8 %7(ptr noundef nonnull align 8 dereferenceable(8) %5, i8 noundef zeroext %6)
  %conv = sext i8 %call to i32
  br label %cond.end6

cond.false5:                                      ; preds = %cast.end
  br label %cond.end6

cond.end6:                                        ; preds = %cond.false5, %cond.true4
  %cond7 = phi i32 [ %conv, %cond.true4 ], [ 1, %cond.false5 ]
  %conv8 = trunc i32 %cond7 to i8
  ret i8 %conv8
}