; Function Attrs: mustprogress uwtable
define noundef signext i8 @_ZNK6icu_7519TransliterationRule17matchesIndexValueEh(ptr nocapture noundef nonnull readonly align 8 dereferenceable(136) %this, i8 noundef zeroext %v) local_unnamed_addr #1 align 2 {
entry:
  %key = getelementptr inbounds i8, ptr %this, i64 16
  %0 = load ptr, ptr %key, align 8
  %cmp.not = icmp eq ptr %0, null
  %postContext = getelementptr inbounds i8, ptr %this, i64 24
  %1 = load ptr, ptr %postContext, align 8
  %cond = select i1 %cmp.not, ptr %1, ptr %0
  %2 = icmp eq ptr %cond, null
  br i1 %2, label %cond.end6, label %cond.true4

cond.true4:                                       ; preds = %entry
  %add.ptr = getelementptr inbounds i8, ptr %cond, i64 8
  %vtable = load ptr, ptr %add.ptr, align 8
  %vfn = getelementptr inbounds i8, ptr %vtable, i64 32
  %3 = load ptr, ptr %vfn, align 8
  %call = tail call noundef signext i8 %3(ptr noundef nonnull align 8 dereferenceable(8) %add.ptr, i8 noundef zeroext %v)
  br label %cond.end6

cond.end6:                                        ; preds = %entry, %cond.true4
  %cond7 = phi i8 [ %call, %cond.true4 ], [ 1, %entry ]
  ret i8 %cond7
}